BL51 BANKED LINKER/LOCATER V6.22                                                        10/05/2018  21:28:24  PAGE 1


BL51 BANKED LINKER/LOCATER V6.22, INVOKED BY:
E:\PROGRAMS\KEIL\C51\BIN\BL51.EXE STARTUP.obj, FLASH.obj TO morse


MEMORY MODEL: SMALL


INPUT MODULES INCLUDED:
  STARTUP.obj (?C_STARTUP)
  FLASH.obj (FLASH)


LINK MAP OF MODULE:  morse (?C_STARTUP)


            TYPE    BASE      LENGTH    RELOCATION   SEGMENT NAME
            -----------------------------------------------------

            * * * * * * *   D A T A   M E M O R Y   * * * * * * *
            REG     0000H     0008H     ABSOLUTE     "REG BANK 0"
            IDATA   0008H     0001H     UNIT         ?STACK

            * * * * * * *   C O D E   M E M O R Y   * * * * * * *
            CODE    0000H     0003H     ABSOLUTE     
                    0003H     07FDH                  *** GAP ***
            CODE    0800H     0045H     UNIT         ?PR?MAIN?FLASH
            CODE    0845H     0027H     UNIT         ?PR?_DELAY?FLASH
            CODE    086CH     000CH     UNIT         ?C_C51STARTUP
            CODE    0878H     000CH     UNIT         ?PR?LINE?FLASH
            CODE    0884H     0008H     UNIT         ?PR?DOT?FLASH



OVERLAY MAP OF MODULE:   morse (?C_STARTUP)


SEGMENT
  +--> CALLED SEGMENT
---------------------
?C_C51STARTUP
  +--> ?PR?MAIN?FLASH

?PR?MAIN?FLASH
  +--> ?PR?_DELAY?FLASH
  +--> ?PR?DOT?FLASH
  +--> ?PR?LINE?FLASH

?PR?_DELAY?FLASH
  +--> ?PR?DOT?FLASH

?PR?LINE?FLASH
  +--> ?PR?_DELAY?FLASH



SYMBOL TABLE OF MODULE:  morse (?C_STARTUP)

  VALUE           TYPE          NAME
BL51 BANKED LINKER/LOCATER V6.22                                                      10/05/2018  21:28:24  PAGE 2


  ----------------------------------

  -------         MODULE        ?C_STARTUP
  C:086CH         SEGMENT       ?C_C51STARTUP
  I:0008H         SEGMENT       ?STACK
  C:0000H         PUBLIC        ?C_STARTUP
  D:00E0H         SYMBOL        ACC
  D:00F0H         SYMBOL        B
  D:0083H         SYMBOL        DPH
  D:0082H         SYMBOL        DPL
  N:0000H         SYMBOL        IBPSTACK
  N:0100H         SYMBOL        IBPSTACKTOP
  N:0080H         SYMBOL        IDATALEN
  C:086FH         SYMBOL        IDATALOOP
  N:0000H         SYMBOL        PBPSTACK
  N:0100H         SYMBOL        PBPSTACKTOP
  N:0000H         SYMBOL        PDATALEN
  N:0000H         SYMBOL        PDATASTART
  N:0000H         SYMBOL        PPAGE
  N:0000H         SYMBOL        PPAGEENABLE
  D:00A0H         SYMBOL        PPAGE_SFR
  D:0081H         SYMBOL        SP
  C:086CH         SYMBOL        STARTUP1
  N:0000H         SYMBOL        XBPSTACK
  N:0000H         SYMBOL        XBPSTACKTOP
  N:0000H         SYMBOL        XDATALEN
  N:0000H         SYMBOL        XDATASTART
  C:0000H         LINE#         126
  C:086CH         LINE#         133
  C:086EH         LINE#         134
  C:086FH         LINE#         135
  C:0870H         LINE#         136
  C:0872H         LINE#         185
  C:0875H         LINE#         196
  -------         ENDMOD        ?C_STARTUP

  -------         MODULE        FLASH
  C:0000H         SYMBOL        _ICE_DUMMY_
  D:0090H         PUBLIC        P1
  C:084CH         PUBLIC        _delay
  C:0800H         PUBLIC        main
  C:0878H         PUBLIC        line
  C:0884H         PUBLIC        dot
  B:0090H.0       PUBLIC        p10
  C:0845H         SYMBOL        L?0025
  C:0848H         SYMBOL        L?0026
  -------         PROC          L?0024
  -------         ENDPROC       L?0024
  C:0845H         SYMBOL        L?0025
  C:0848H         SYMBOL        L?0026
  -------         PROC          _DELAY
  D:0006H         SYMBOL        n
  -------         DO            
  D:0004H         SYMBOL        i
  D:0002H         SYMBOL        j
  -------         ENDDO         
  C:084CH         LINE#         6
BL51 BANKED LINKER/LOCATER V6.22                                                      10/05/2018  21:28:24  PAGE 3


  C:084CH         LINE#         7
  C:084CH         LINE#         8
  C:084FH         LINE#         9
  C:0856H         LINE#         10
  C:086BH         LINE#         11
  -------         ENDPROC       _DELAY
  -------         PROC          DOT
  C:0884H         LINE#         13
  C:0884H         LINE#         14
  C:0884H         LINE#         15
  C:0886H         LINE#         16
  C:0889H         LINE#         17
  C:088BH         LINE#         18
  -------         ENDPROC       DOT
  -------         PROC          LINE
  C:0878H         LINE#         20
  C:0878H         LINE#         21
  C:0878H         LINE#         22
  C:087AH         LINE#         23
  C:0881H         LINE#         24
  C:0883H         LINE#         25
  -------         ENDPROC       LINE
  -------         PROC          MAIN
  -------         DO            
  D:0001H         SYMBOL        a
  -------         ENDDO         
  C:0800H         LINE#         27
  C:0800H         LINE#         28
  C:0800H         LINE#         30
  C:0800H         LINE#         31
  C:0800H         LINE#         33
  C:0802H         LINE#         34
  C:0802H         LINE#         35
  C:0805H         LINE#         36
  C:0807H         LINE#         37
  C:080EH         LINE#         39
  C:0811H         LINE#         40
  C:0818H         LINE#         42
  C:081AH         LINE#         43
  C:081AH         LINE#         44
  C:081DH         LINE#         45
  C:0823H         LINE#         46
  C:0826H         LINE#         47
  C:0829H         LINE#         48
  C:0830H         LINE#         49
  C:0832H         LINE#         51
  C:0834H         LINE#         52
  C:0834H         LINE#         53
  C:083AH         LINE#         54
  C:083CH         LINE#         55
  C:0843H         LINE#         56
  -------         ENDPROC       MAIN
  -------         ENDMOD        FLASH

******************************************************************************
* RESTRICTED VERSION WITH 0800H BYTE CODE SIZE LIMIT; USED: 008FH BYTE ( 6%) *
******************************************************************************
BL51 BANKED LINKER/LOCATER V6.22                                                      10/05/2018  21:28:24  PAGE 4



Program Size: data=9.0 xdata=0 code=143
LINK/LOCATE RUN COMPLETE.  0 WARNING(S),  0 ERROR(S)
